(lp0
ccopy_reg
_reconstructor
p1
(cgeometry_msgs.msg._PoseWithCovariance
PoseWithCovariance
p2
c__builtin__
object
p3
Ntp4
Rp5
(lp6
g1
(cgeometry_msgs.msg._Pose
Pose
p7
g3
Ntp8
Rp9
(lp10
g1
(cgeometry_msgs.msg._Point
Point
p11
g3
Ntp12
Rp13
(lp14
F0.8299131940140123
aF0.1387178539091807
aF0.0
abag1
(cgeometry_msgs.msg._Quaternion
Quaternion
p15
g3
Ntp16
Rp17
(lp18
F0.0
aF0.0
aF-0.04899823809043273
aF0.9987988649693357
ababa(F0.0037531233095391414
F9.898074184010175e-05
F0.0
F0.0
F0.0
F0.0
F9.898074184010175e-05
F0.007302780859080295
F0.0
F0.0
F0.0
F0.0
F0.0
F0.0
F0.0
F0.0
F0.0
F0.0
F0.0
F0.0
F0.0
F0.0
F0.0
F0.0
F0.0
F0.0
F0.0
F0.0
F0.0
F0.0
F0.0
F0.0
F0.0
F0.0
F0.0
F0.0030797373692162703
tp19
abag1
(g2
g3
Ntp20
Rp21
(lp22
g1
(g7
g3
Ntp23
Rp24
(lp25
g1
(g11
g3
Ntp26
Rp27
(lp28
F1.2977320840491287
aF-0.2575989946240877
aF0.0
abag1
(g15
g3
Ntp29
Rp30
(lp31
F0.0
aF0.0
aF-0.6571512088635387
aF0.753758773540441
ababa(F0.005215553932398143
F-0.0011113425960552203
F0.0
F0.0
F0.0
F0.0
F-0.0011113425960552203
F0.0027936105528015287
F0.0
F0.0
F0.0
F0.0
F0.0
F0.0
F0.0
F0.0
F0.0
F0.0
F0.0
F0.0
F0.0
F0.0
F0.0
F0.0
F0.0
F0.0
F0.0
F0.0
F0.0
F0.0
F0.0
F0.0
F0.0
F0.0
F0.0
F0.0025346880751116996
tp32
abag1
(g2
g3
Ntp33
Rp34
(lp35
g1
(g7
g3
Ntp36
Rp37
(lp38
g1
(g11
g3
Ntp39
Rp40
(lp41
F0.8920519823888012
aF-1.333703822427193
aF0.0
abag1
(g15
g3
Ntp42
Rp43
(lp44
F0.0
aF0.0
aF0.9964315202651592
aF0.0844051267522511
ababa(F0.0020922033760206737
F-0.00022298437478096567
F0.0
F0.0
F0.0
F0.0
F-0.00022298437478096567
F0.001723671048970532
F0.0
F0.0
F0.0
F0.0
F0.0
F0.0
F0.0
F0.0
F0.0
F0.0
F0.0
F0.0
F0.0
F0.0
F0.0
F0.0
F0.0
F0.0
F0.0
F0.0
F0.0
F0.0
F0.0
F0.0
F0.0
F0.0
F0.0
F0.0036645639453749945
tp45
abag1
(g2
g3
Ntp46
Rp47
(lp48
g1
(g7
g3
Ntp49
Rp50
(lp51
g1
(g11
g3
Ntp52
Rp53
(lp54
F0.8905838395772891
aF-2.282676716772473
aF0.0
abag1
(g15
g3
Ntp55
Rp56
(lp57
F0.0
aF0.0
aF-0.6868419615730751
aF0.7268067967640716
ababa(F0.006577013035888757
F-0.000576060250726762
F0.0
F0.0
F0.0
F0.0
F-0.000576060250726762
F0.002611318698008347
F0.0
F0.0
F0.0
F0.0
F0.0
F0.0
F0.0
F0.0
F0.0
F0.0
F0.0
F0.0
F0.0
F0.0
F0.0
F0.0
F0.0
F0.0
F0.0
F0.0
F0.0
F0.0
F0.0
F0.0
F0.0
F0.0
F0.0
F0.005023546712365454
tp58
abag1
(g2
g3
Ntp59
Rp60
(lp61
g1
(g7
g3
Ntp62
Rp63
(lp64
g1
(g11
g3
Ntp65
Rp66
(lp67
F1.7100111344067972
aF-2.221074360170041
aF0.0
abag1
(g15
g3
Ntp68
Rp69
(lp70
F0.0
aF0.0
aF-0.6440076736565256
aF0.7650190300061235
ababa(F0.004237892931854503
F0.0007879367495449152
F0.0
F0.0
F0.0
F0.0
F0.0007879367495449152
F0.0012351844859326278
F0.0
F0.0
F0.0
F0.0
F0.0
F0.0
F0.0
F0.0
F0.0
F0.0
F0.0
F0.0
F0.0
F0.0
F0.0
F0.0
F0.0
F0.0
F0.0
F0.0
F0.0
F0.0
F0.0
F0.0
F0.0
F0.0
F0.0
F0.0038968229207697476
tp71
abag1
(g2
g3
Ntp72
Rp73
(lp74
g1
(g7
g3
Ntp75
Rp76
(lp77
g1
(g11
g3
Ntp78
Rp79
(lp80
F2.529340064411241
aF-2.17721988027245
aF0.0
abag1
(g15
g3
Ntp81
Rp82
(lp83
F0.0
aF0.0
aF-0.6545801577927327
aF0.7559926038156994
ababa(F0.0029517559916349967
F0.000758464964994765
F0.0
F0.0
F0.0
F0.0
F0.000758464964994765
F0.0014937959511946985
F0.0
F0.0
F0.0
F0.0
F0.0
F0.0
F0.0
F0.0
F0.0
F0.0
F0.0
F0.0
F0.0
F0.0
F0.0
F0.0
F0.0
F0.0
F0.0
F0.0
F0.0
F0.0
F0.0
F0.0
F0.0
F0.0
F0.0
F0.0030391265212219095
tp84
abag1
(g2
g3
Ntp85
Rp86
(lp87
g1
(g7
g3
Ntp88
Rp89
(lp90
g1
(g11
g3
Ntp91
Rp92
(lp93
F3.329456176648891
aF-2.2532903638048607
aF0.0
abag1
(g15
g3
Ntp94
Rp95
(lp96
F0.0
aF0.0
aF-0.6964901072354723
aF0.7175663945051498
ababa(F0.001752026391663719
F4.2977331349725034e-05
F0.0
F0.0
F0.0
F0.0
F4.2977331349725034e-05
F0.0016705947704052093
F0.0
F0.0
F0.0
F0.0
F0.0
F0.0
F0.0
F0.0
F0.0
F0.0
F0.0
F0.0
F0.0
F0.0
F0.0
F0.0
F0.0
F0.0
F0.0
F0.0
F0.0
F0.0
F0.0
F0.0
F0.0
F0.0
F0.0
F0.0021011419184956
tp97
abag1
(g2
g3
Ntp98
Rp99
(lp100
g1
(g7
g3
Ntp101
Rp102
(lp103
g1
(g11
g3
Ntp104
Rp105
(lp106
F4.046888002016244
aF-2.2449912051581844
aF0.0
abag1
(g15
g3
Ntp107
Rp108
(lp109
F0.0
aF0.0
aF-0.6458801149170604
aF0.7634388496498752
ababa(F0.0026710585314582147
F-2.813771784460073e-06
F0.0
F0.0
F0.0
F0.0
F-2.813771784460073e-06
F0.0021578118264518054
F0.0
F0.0
F0.0
F0.0
F0.0
F0.0
F0.0
F0.0
F0.0
F0.0
F0.0
F0.0
F0.0
F0.0
F0.0
F0.0
F0.0
F0.0
F0.0
F0.0
F0.0
F0.0
F0.0
F0.0
F0.0
F0.0
F0.0
F0.002436892919326926
tp110
abag1
(g2
g3
Ntp111
Rp112
(lp113
g1
(g7
g3
Ntp114
Rp115
(lp116
g1
(g11
g3
Ntp117
Rp118
(lp119
F2.2062477075828606
aF-1.0874915162141159
aF0.0
abag1
(g15
g3
Ntp120
Rp121
(lp122
F0.0
aF0.0
aF0.6231057913109862
aF0.782137566438737
ababa(F0.004842730569201592
F0.00401407972839074
F0.0
F0.0
F0.0
F0.0
F0.00401407972839074
F0.009042563658191227
F0.0
F0.0
F0.0
F0.0
F0.0
F0.0
F0.0
F0.0
F0.0
F0.0
F0.0
F0.0
F0.0
F0.0
F0.0
F0.0
F0.0
F0.0
F0.0
F0.0
F0.0
F0.0
F0.0
F0.0
F0.0
F0.0
F0.0
F0.0031303352028360064
tp123
abag1
(g2
g3
Ntp124
Rp125
(lp126
g1
(g7
g3
Ntp127
Rp128
(lp129
g1
(g11
g3
Ntp130
Rp131
(lp132
F3.0375275954930085
aF-1.0658844876711007
aF0.0
abag1
(g15
g3
Ntp133
Rp134
(lp135
F0.0
aF0.0
aF0.7022062065249822
aF0.7119736255773762
ababa(F0.004095945121115108
F0.0001734328350315728
F0.0
F0.0
F0.0
F0.0
F0.0001734328350320169
F0.0007041837616281743
F0.0
F0.0
F0.0
F0.0
F0.0
F0.0
F0.0
F0.0
F0.0
F0.0
F0.0
F0.0
F0.0
F0.0
F0.0
F0.0
F0.0
F0.0
F0.0
F0.0
F0.0
F0.0
F0.0
F0.0
F0.0
F0.0
F0.0
F0.0025631942645743936
tp136
abag1
(g2
g3
Ntp137
Rp138
(lp139
g1
(g7
g3
Ntp140
Rp141
(lp142
g1
(g11
g3
Ntp143
Rp144
(lp145
F4.0347034814234375
aF-0.24867379808387663
aF0.0
abag1
(g15
g3
Ntp146
Rp147
(lp148
F0.0
aF0.0
aF0.7583600731887585
aF0.651835868446299
ababa(F0.0019377162068749954
F-0.0002130646091307309
F0.0
F0.0
F0.0
F0.0
F-0.0002130646091307309
F0.0022648426874721517
F0.0
F0.0
F0.0
F0.0
F0.0
F0.0
F0.0
F0.0
F0.0
F0.0
F0.0
F0.0
F0.0
F0.0
F0.0
F0.0
F0.0
F0.0
F0.0
F0.0
F0.0
F0.0
F0.0
F0.0
F0.0
F0.0
F0.0
F0.002248155442790799
tp149
aba.